; Function Attrs: nounwind uwtable
define dso_local void @ReorderBufferInvalidate(ptr noundef captures(none) %0, i32 noundef %1, i64 noundef %2) local_unnamed_addr #0 {
  %4 = alloca i32, align 4
  %5 = alloca i8, align 1
  call void @llvm.lifetime.start.p0(i64 4, ptr nonnull %4)
  store i32 %1, ptr %4, align 4
  call void @llvm.lifetime.start.p0(i64 1, ptr nonnull %5) #19
  %6 = getelementptr inbounds nuw i8, ptr %0, i64 64
  %7 = load i32, ptr %6, align 8
  %.not.i = icmp ne i32 %7, 0
  %8 = icmp eq i32 %7, %1
  %or.cond.i = and i1 %.not.i, %8
  br i1 %or.cond.i, label %9, label %12

9:                                                ; preds = %3
  %10 = getelementptr inbounds nuw i8, ptr %0, i64 72
  %11 = load ptr, ptr %10, align 8
  %.not34.i = icmp eq ptr %11, null
  call void @llvm.lifetime.end.p0(i64 1, ptr nonnull %5) #19
  call void @llvm.lifetime.end.p0(i64 4, ptr nonnull %4)
  br i1 %.not34.i, label %ReorderBufferImmediateInvalidation.exit, label %ReorderBufferTXNByXid.exit.thread11

12:                                               ; preds = %3
  %13 = load ptr, ptr %0, align 8
  %14 = call ptr @hash_search(ptr noundef %13, ptr noundef nonnull %4, i32 noundef 0, ptr noundef nonnull %5) #19
  %15 = load i8, ptr %5, align 1, !range !6, !noundef !7
  %16 = trunc nuw i8 %15 to i1
  br i1 %16, label %ReorderBufferTXNByXid.exit, label %ReorderBufferTXNByXid.exit.thread14

ReorderBufferTXNByXid.exit.thread14:              ; preds = %12
  %17 = load i32, ptr %4, align 4
  store i32 %17, ptr %6, align 8
  %18 = getelementptr inbounds nuw i8, ptr %0, i64 72
  store ptr null, ptr %18, align 8
  call void @llvm.lifetime.end.p0(i64 1, ptr nonnull %5) #19
  call void @llvm.lifetime.end.p0(i64 4, ptr nonnull %4)
  br label %ReorderBufferImmediateInvalidation.exit

ReorderBufferTXNByXid.exit:                       ; preds = %12
  %19 = getelementptr inbounds nuw i8, ptr %14, i64 8
  %20 = load ptr, ptr %19, align 8
  %21 = load i32, ptr %4, align 4
  store i32 %21, ptr %6, align 8
  %22 = getelementptr inbounds nuw i8, ptr %0, i64 72
  store ptr %20, ptr %22, align 8
  call void @llvm.lifetime.end.p0(i64 1, ptr nonnull %5) #19
  call void @llvm.lifetime.end.p0(i64 4, ptr nonnull %4)
  %23 = icmp eq ptr %20, null
  br i1 %23, label %ReorderBufferImmediateInvalidation.exit, label %ReorderBufferTXNByXid.exit.thread11

ReorderBufferTXNByXid.exit.thread11:              ; preds = %9, %ReorderBufferTXNByXid.exit
  %.0.i13 = phi ptr [ %20, %ReorderBufferTXNByXid.exit ], [ %11, %9 ]
  %24 = getelementptr inbounds nuw i8, ptr %.0.i13, i64 88
  %25 = load ptr, ptr %24, align 8
  %.not = icmp eq ptr %25, null
  br i1 %.not, label %ReorderBufferImmediateInvalidation.exit, label %26

26:                                               ; preds = %ReorderBufferTXNByXid.exit.thread11
  %27 = getelementptr inbounds nuw i8, ptr %.0.i13, i64 228
  %28 = load i32, ptr %27, align 4
  %.not8 = icmp eq i32 %28, 0
  br i1 %.not8, label %ReorderBufferImmediateInvalidation.exit, label %29

29:                                               ; preds = %26
  %30 = getelementptr inbounds nuw i8, ptr %.0.i13, i64 232
  %31 = load ptr, ptr %30, align 8
  %32 = call zeroext i1 @IsTransactionOrTransactionBlock() #19
  br i1 %32, label %33, label %.lr.ph.i.preheader

33:                                               ; preds = %29
  call void @BeginInternalSubTransaction(ptr noundef nonnull @.str.7) #19
  call void @AbortCurrentTransaction() #19
  br label %.lr.ph.i.preheader

.lr.ph.i.preheader:                               ; preds = %33, %29
  br label %.lr.ph.i

.lr.ph.i:                                         ; preds = %.lr.ph.i.preheader, %.lr.ph.i
  %.07.i = phi i32 [ %36, %.lr.ph.i ], [ 0, %.lr.ph.i.preheader ]
  %34 = sext i32 %.07.i to i64
  %35 = getelementptr inbounds %union.SharedInvalidationMessage, ptr %31, i64 %34
  call void @LocalExecuteInvalidationMessage(ptr noundef %35) #19
  %36 = add nuw i32 %.07.i, 1
  %exitcond.not.i = icmp eq i32 %36, %28
  br i1 %exitcond.not.i, label %._crit_edge.i, label %.lr.ph.i, !llvm.loop !15

._crit_edge.i:                                    ; preds = %.lr.ph.i
  br i1 %32, label %37, label %ReorderBufferImmediateInvalidation.exit

37:                                               ; preds = %._crit_edge.i
  call void @RollbackAndReleaseCurrentSubTransaction() #19
  br label %ReorderBufferImmediateInvalidation.exit

ReorderBufferImmediateInvalidation.exit:          ; preds = %9, %37, %._crit_edge.i, %ReorderBufferTXNByXid.exit.thread14, %26, %ReorderBufferTXNByXid.exit.thread11, %ReorderBufferTXNByXid.exit
  ret void
}